(lp1
(dp2
S'vis'
p3
c__builtin__
bool
p4
sS'title'
p5
S'a'
sS'y'
cnumpy.core.multiarray
scalar
p6
(cnumpy
dtype
p7
(S'f8'
I0
I1
tRp8
(I3
S'<'
NNNI-1
I-1
I0
tbS'h\xad\xb5\xd6Z`l@'
tRp9
sS'x'
g6
(g8
S'\xe6\x9cs\xce9\x97\x88@'
tRp10
sS'type'
p11
S'ob'
p12
sS'desc'
p13
S'b'
sa.